target datalayout = "e-m:e-p270:32:32-p271:32:32-p272:64:64-i64:64-i128:128-f80:128-n8:16:32:64-S128"
target triple = "x86_64-pc-linux-gnu"

@rb_cFile = external global i64, align 8
@.str.19 = private unnamed_addr constant [13 x i8] c"masterpty:%s\00", align 1
@rb_cIO = external global i64, align 8

; Function Attrs: nounwind sspstrong uwtable
define internal void @getDevice(ptr noundef %0, ptr noundef %1, ptr noundef %2, i32 noundef %3) #0 {
  %5 = alloca ptr, align 8
  %6 = alloca ptr, align 8
  %7 = alloca ptr, align 8
  %8 = alloca i32, align 4
  store ptr %0, ptr %5, align 8, !tbaa !35
  store ptr %1, ptr %6, align 8, !tbaa !35
  store ptr %2, ptr %7, align 8, !tbaa !20
  store i32 %3, ptr %8, align 4, !tbaa !10
  %9 = load ptr, ptr %5, align 8, !tbaa !35
  %10 = load ptr, ptr %6, align 8, !tbaa !35
  %11 = load ptr, ptr %7, align 8, !tbaa !20
  %12 = load i32, ptr %8, align 4, !tbaa !10
  %13 = call i32 @get_device_once(ptr noundef %9, ptr noundef %10, ptr noundef %11, i32 noundef %12, i32 noundef 0)
  %14 = icmp ne i32 %13, 0
  br i1 %14, label %15, label %21

15:                                               ; preds = %4
  call void @rb_gc()
  %16 = load ptr, ptr %5, align 8, !tbaa !35
  %17 = load ptr, ptr %6, align 8, !tbaa !35
  %18 = load ptr, ptr %7, align 8, !tbaa !20
  %19 = load i32, ptr %8, align 4, !tbaa !10
  %20 = call i32 @get_device_once(ptr noundef %16, ptr noundef %17, ptr noundef %18, i32 noundef %19, i32 noundef 1)
  br label %21

21:                                               ; preds = %15, %4
  ret void
}

; Function Attrs: nounwind sspstrong uwtable
define internal i64 @pty_open(i64 noundef %0) #0 {
  %2 = alloca i64, align 8
  %3 = alloca i64, align 8
  %4 = alloca i32, align 4
  %5 = alloca i32, align 4
  %6 = alloca [16 x i8], align 16
  %7 = alloca i64, align 8
  %8 = alloca i64, align 8
  %9 = alloca i64, align 8
  %10 = alloca i64, align 8
  %11 = alloca i64, align 8
  %12 = alloca i32, align 4
  store i64 %0, ptr %3, align 8, !tbaa !6
  call void @llvm.lifetime.start.p0(i64 4, ptr %4) #15
  call void @llvm.lifetime.start.p0(i64 4, ptr %5) #15
  call void @llvm.lifetime.start.p0(i64 16, ptr %6) #15
  %13 = getelementptr inbounds [16 x i8], ptr %6, i64 0, i64 0
  call void @getDevice(ptr noundef %4, ptr noundef %5, ptr noundef %13, i32 noundef 1)
  call void @llvm.lifetime.start.p0(i64 8, ptr %7) #15
  %14 = getelementptr inbounds [16 x i8], ptr %6, i64 0, i64 0
  %15 = call i64 (ptr, ...) @rb_sprintf(ptr noundef @.str.19, ptr noundef %14)
  %16 = call i64 @rb_obj_freeze(i64 noundef %15)
  store i64 %16, ptr %7, align 8, !tbaa !6
  call void @llvm.lifetime.start.p0(i64 8, ptr %8) #15
  %17 = load i64, ptr @rb_cIO, align 8, !tbaa !6
  %18 = load i32, ptr %4, align 4, !tbaa !10
  %19 = load i64, ptr %7, align 8, !tbaa !6
  %20 = call i64 @rb_io_open_descriptor(i64 noundef %17, i32 noundef %18, i32 noundef 43, i64 noundef %19, i64 noundef 4, ptr noundef null)
  store i64 %20, ptr %8, align 8, !tbaa !6
  call void @llvm.lifetime.start.p0(i64 8, ptr %9) #15
  %21 = getelementptr inbounds [16 x i8], ptr %6, i64 0, i64 0
  %22 = call i64 @rb_str_new_cstr(ptr noundef %21)
  %23 = call i64 @rb_obj_freeze(i64 noundef %22)
  store i64 %23, ptr %9, align 8, !tbaa !6
  call void @llvm.lifetime.start.p0(i64 8, ptr %10) #15
  %24 = load i64, ptr @rb_cFile, align 8, !tbaa !6
  %25 = load i32, ptr %5, align 4, !tbaa !10
  %26 = load i64, ptr %9, align 8, !tbaa !6
  %27 = call i64 @rb_io_open_descriptor(i64 noundef %24, i32 noundef %25, i32 noundef 59, i64 noundef %26, i64 noundef 4, ptr noundef null)
  store i64 %27, ptr %10, align 8, !tbaa !6
  call void @llvm.lifetime.start.p0(i64 8, ptr %11) #15
  %28 = load i64, ptr %8, align 8, !tbaa !6
  %29 = load i64, ptr %10, align 8, !tbaa !6
  %30 = call i64 @rb_assoc_new(i64 noundef %28, i64 noundef %29)
  store i64 %30, ptr %11, align 8, !tbaa !6
  %31 = call i32 @rb_block_given_p()
  %32 = icmp ne i32 %31, 0
  br i1 %32, label %33, label %37

33:                                               ; preds = %1
  %34 = load i64, ptr %11, align 8, !tbaa !6
  %35 = load i64, ptr %11, align 8, !tbaa !6
  %36 = call i64 @rb_ensure(ptr noundef @rb_yield, i64 noundef %34, ptr noundef @pty_close_pty, i64 noundef %35)
  store i64 %36, ptr %2, align 8
  store i32 1, ptr %12, align 4
  br label %39

37:                                               ; preds = %1
  %38 = load i64, ptr %11, align 8, !tbaa !6
  store i64 %38, ptr %2, align 8
  store i32 1, ptr %12, align 4
  br label %39

39:                                               ; preds = %37, %33
  call void @llvm.lifetime.end.p0(i64 8, ptr %11) #15
  call void @llvm.lifetime.end.p0(i64 8, ptr %10) #15
  call void @llvm.lifetime.end.p0(i64 8, ptr %9) #15
  call void @llvm.lifetime.end.p0(i64 8, ptr %8) #15
  call void @llvm.lifetime.end.p0(i64 8, ptr %7) #15
  call void @llvm.lifetime.end.p0(i64 16, ptr %6) #15
  call void @llvm.lifetime.end.p0(i64 4, ptr %5) #15
  call void @llvm.lifetime.end.p0(i64 4, ptr %4) #15
  %40 = load i64, ptr %2, align 8
  ret i64 %40
}