; Function Attrs: nounwind sspstrong uwtable
define internal i64 @pty_open(i64 %0) #0 {
  %2 = alloca i32, align 4
  %3 = alloca i32, align 4
  %4 = alloca [16 x i8], align 16
  call void @llvm.lifetime.start.p0(i64 4, ptr nonnull %2) #10
  call void @llvm.lifetime.start.p0(i64 4, ptr nonnull %3) #10
  call void @llvm.lifetime.start.p0(i64 16, ptr nonnull %4) #10
  %5 = call fastcc i32 @get_device_once(ptr noundef nonnull %2, ptr noundef nonnull %3, ptr noundef nonnull %4, i32 noundef 1, i32 noundef 0)
  %.not.i = icmp eq i32 %5, 0
  br i1 %.not.i, label %getDevice.exit, label %6

6:                                                ; preds = %1
  call void @rb_gc() #10
  %7 = call fastcc i32 @get_device_once(ptr noundef nonnull %2, ptr noundef nonnull %3, ptr noundef nonnull %4, i32 noundef 1, i32 noundef 1)
  br label %getDevice.exit

getDevice.exit:                                   ; preds = %1, %6
  %8 = call i64 (ptr, ...) @rb_sprintf(ptr noundef nonnull @.str.19, ptr noundef nonnull %4) #10
  %9 = call i64 @rb_obj_freeze(i64 noundef %8) #10
  %10 = load i64, ptr @rb_cIO, align 8, !tbaa !6
  %11 = load i32, ptr %2, align 4, !tbaa !10
  %12 = call i64 @rb_io_open_descriptor(i64 noundef %10, i32 noundef %11, i32 noundef 43, i64 noundef %9, i64 noundef 4, ptr noundef null) #10
  %13 = call i64 @rb_str_new_cstr(ptr noundef nonnull %4) #10
  %14 = call i64 @rb_obj_freeze(i64 noundef %13) #10
  %15 = load i64, ptr @rb_cFile, align 8, !tbaa !6
  %16 = load i32, ptr %3, align 4, !tbaa !10
  %17 = call i64 @rb_io_open_descriptor(i64 noundef %15, i32 noundef %16, i32 noundef 59, i64 noundef %14, i64 noundef 4, ptr noundef null) #10
  %18 = call i64 @rb_assoc_new(i64 noundef %12, i64 noundef %17) #10
  %19 = call i32 @rb_block_given_p() #10
  %.not = icmp eq i32 %19, 0
  br i1 %.not, label %22, label %20

20:                                               ; preds = %getDevice.exit
  %21 = call i64 @rb_ensure(ptr noundef nonnull @rb_yield, i64 noundef %18, ptr noundef nonnull @pty_close_pty, i64 noundef %18) #10
  br label %22

22:                                               ; preds = %getDevice.exit, %20
  %.0 = phi i64 [ %21, %20 ], [ %18, %getDevice.exit ]
  call void @llvm.lifetime.end.p0(i64 16, ptr nonnull %4) #10
  call void @llvm.lifetime.end.p0(i64 4, ptr nonnull %3) #10
  call void @llvm.lifetime.end.p0(i64 4, ptr nonnull %2) #10
  ret i64 %.0
}